; Function Attrs: nounwind uwtable
define internal range(i32 0, 23) i32 @experimental_hooks_install_ctl(ptr noundef %0, ptr readnone captures(none) %1, i64 %2, ptr noundef writeonly captures(address_is_null) %3, ptr noundef captures(address_is_null) %4, ptr noundef readonly captures(address_is_null) %5, i64 noundef %6) #0 {
  %8 = alloca %struct.hooks_s, align 8
  %9 = alloca ptr, align 8
  %10 = icmp ne ptr %3, null
  %11 = icmp ne ptr %4, null
  %or.cond.not38 = and i1 %10, %11
  %12 = icmp ne ptr %5, null
  %or.cond3.not35 = and i1 %or.cond.not38, %12
  %.not = icmp eq i64 %6, 32
  %or.cond33 = and i1 %or.cond3.not35, %.not
  br i1 %or.cond33, label %13, label %20

13:                                               ; preds = %7
  call void @llvm.memcpy.p0.p0.i64(ptr noundef nonnull align 8 dereferenceable(32) %8, ptr noundef nonnull align 8 dereferenceable(32) %5, i64 32, i1 false), !tbaa.struct !287
  %14 = call ptr @je_hook_install(ptr noundef %0, ptr noundef nonnull %8) #15
  store ptr %14, ptr %9, align 8, !tbaa !230
  %15 = icmp eq ptr %14, null
  br i1 %15, label %20, label %16

16:                                               ; preds = %13
  %17 = load i64, ptr %4, align 8, !tbaa !4
  %.not32 = icmp eq i64 %17, 8
  br i1 %.not32, label %19, label %18

18:                                               ; preds = %16
  %spec.select = call i64 @llvm.umin.i64(i64 %17, i64 8)
  call void @llvm.memcpy.p0.p0.i64(ptr nonnull align 1 %3, ptr nonnull align 8 %9, i64 %spec.select, i1 false)
  store i64 %spec.select, ptr %4, align 8, !tbaa !4
  br label %20

19:                                               ; preds = %16
  store ptr %14, ptr %3, align 8, !tbaa !230
  br label %20

20:                                               ; preds = %19, %18, %7, %13
  %.026 = phi i32 [ 22, %18 ], [ 0, %19 ], [ 22, %7 ], [ 11, %13 ]
  ret i32 %.026
}